; Function Attrs: nounwind uwtable
define dso_local zeroext i1 @gistcanreturn(ptr noundef %0, i32 noundef %1) local_unnamed_addr #0 {
  %3 = getelementptr inbounds nuw i8, ptr %0, i64 328
  %4 = load ptr, ptr %3, align 8
  %5 = getelementptr inbounds nuw i8, ptr %4, i64 10
  %6 = load i16, ptr %5, align 2
  %7 = sext i16 %6 to i32
  %8 = icmp sgt i32 %1, %7
  br i1 %8, label %14, label %9

9:                                                ; preds = %2
  %10 = trunc i32 %1 to i16
  %11 = tail call i32 @index_getprocid(ptr noundef nonnull %0, i16 noundef signext %10, i16 noundef zeroext 9) #8
  %.not = icmp eq i32 %11, 0
  br i1 %.not, label %12, label %14

12:                                               ; preds = %9
  %13 = tail call i32 @index_getprocid(ptr noundef nonnull %0, i16 noundef signext %10, i16 noundef zeroext 3) #8
  %.not7 = icmp eq i32 %13, 0
  br label %14

14:                                               ; preds = %12, %2, %9
  %.0 = phi i1 [ true, %9 ], [ true, %2 ], [ %.not7, %12 ]
  ret i1 %.0
}